; Function Attrs: mustprogress uwtable
define noundef i32 @_ZN8QuantLib31CTSMMCapletAlphaFormCalibration16calibrationImpl_Ejjd(ptr noundef nonnull align 8 dereferenceable(592) %this, i32 noundef %numberOfFactors, i32 noundef %maxIterations, double noundef %tolerance) unnamed_addr #1 align 2 {
entry:
  %corr_ = getelementptr inbounds nuw i8, ptr %this, i64 136
  %0 = load ptr, ptr %corr_, align 8, !tbaa !18
  %cmp.not.i = icmp eq ptr %0, null
  br i1 %cmp.not.i, label %cond.false.i, label %_ZNK5boost10shared_ptrIN8QuantLib28PiecewiseConstantCorrelationEEdeEv.exit, !prof !23

cond.false.i:                                     ; preds = %entry
  tail call void @_ZN5boost16assertion_failedEPKcS1_S1_l(ptr noundef nonnull @.str.22, ptr noundef nonnull @__PRETTY_FUNCTION__._ZNK5boost10shared_ptrIN8QuantLib28PiecewiseConstantCorrelationEEdeEv, ptr noundef nonnull @.str.23, i64 noundef 778)
  %.pre.i = load ptr, ptr %corr_, align 8, !tbaa !18
  br label %_ZNK5boost10shared_ptrIN8QuantLib28PiecewiseConstantCorrelationEEdeEv.exit

_ZNK5boost10shared_ptrIN8QuantLib28PiecewiseConstantCorrelationEEdeEv.exit: ; preds = %entry, %cond.false.i
  %1 = phi ptr [ %0, %entry ], [ %.pre.i, %cond.false.i ]
  %cs_ = getelementptr inbounds nuw i8, ptr %this, i64 296
  %2 = load ptr, ptr %cs_, align 8, !tbaa !34
  %cmp.not.i1 = icmp eq ptr %2, null
  br i1 %cmp.not.i1, label %cond.false.i2, label %_ZNK5boost10shared_ptrIN8QuantLib10CurveStateEEdeEv.exit, !prof !23

cond.false.i2:                                    ; preds = %_ZNK5boost10shared_ptrIN8QuantLib28PiecewiseConstantCorrelationEEdeEv.exit
  tail call void @_ZN5boost16assertion_failedEPKcS1_S1_l(ptr noundef nonnull @.str.22, ptr noundef nonnull @__PRETTY_FUNCTION__._ZNK5boost10shared_ptrIN8QuantLib10CurveStateEEdeEv, ptr noundef nonnull @.str.23, i64 noundef 778)
  %.pre.i3 = load ptr, ptr %cs_, align 8, !tbaa !34
  br label %_ZNK5boost10shared_ptrIN8QuantLib10CurveStateEEdeEv.exit

_ZNK5boost10shared_ptrIN8QuantLib10CurveStateEEdeEv.exit: ; preds = %_ZNK5boost10shared_ptrIN8QuantLib28PiecewiseConstantCorrelationEEdeEv.exit, %cond.false.i2
  %3 = phi ptr [ %2, %_ZNK5boost10shared_ptrIN8QuantLib28PiecewiseConstantCorrelationEEdeEv.exit ], [ %.pre.i3, %cond.false.i2 ]
  %usedCapletVols_ = getelementptr inbounds nuw i8, ptr %this, i64 328
  %displacedSwapVariances_ = getelementptr inbounds nuw i8, ptr %this, i64 152
  %evolution_ = getelementptr inbounds nuw i8, ptr %this, i64 8
  %displacement_ = getelementptr inbounds nuw i8, ptr %this, i64 312
  %4 = load double, ptr %displacement_, align 8, !tbaa !108
  %alphaInitial_ = getelementptr inbounds nuw i8, ptr %this, i64 424
  %alphaMax_ = getelementptr inbounds nuw i8, ptr %this, i64 448
  %alphaMin_ = getelementptr inbounds nuw i8, ptr %this, i64 472
  %maximizeHomogeneity_ = getelementptr inbounds nuw i8, ptr %this, i64 496
  %5 = load i8, ptr %maximizeHomogeneity_, align 8, !tbaa !43, !range !109, !noundef !110
  %loadedv = trunc nuw i8 %5 to i1
  %parametricForm_ = getelementptr inbounds nuw i8, ptr %this, i64 504
  %conv = zext i32 %numberOfFactors to i64
  %alpha_ = getelementptr inbounds nuw i8, ptr %this, i64 520
  %a_ = getelementptr inbounds nuw i8, ptr %this, i64 544
  %b_ = getelementptr inbounds nuw i8, ptr %this, i64 568
  %swapCovariancePseudoRoots_ = getelementptr inbounds nuw i8, ptr %this, i64 400
  %call3 = tail call noundef i32 @_ZN8QuantLib31CTSMMCapletAlphaFormCalibration26capletAlphaFormCalibrationERKNS_20EvolutionDescriptionERKNS_28PiecewiseConstantCorrelationERKSt6vectorIN5boost10shared_ptrINS_25PiecewiseConstantVarianceEEESaISB_EERKS7_IdSaIdEERKNS_10CurveStateEdSJ_SJ_SJ_bRKNS9_INS_9AlphaFormEEEmidRSH_SR_SR_RS7_INS_6MatrixESaISS_EE(ptr noundef nonnull align 8 dereferenceable(128) %evolution_, ptr noundef nonnull align 8 dereferenceable(8) %1, ptr noundef nonnull align 8 dereferenceable(24) %displacedSwapVariances_, ptr noundef nonnull align 8 dereferenceable(24) %usedCapletVols_, ptr noundef nonnull align 8 dereferenceable(64) %3, double noundef %4, ptr noundef nonnull align 8 dereferenceable(24) %alphaInitial_, ptr noundef nonnull align 8 dereferenceable(24) %alphaMax_, ptr noundef nonnull align 8 dereferenceable(24) %alphaMin_, i1 noundef zeroext %loadedv, ptr noundef nonnull align 8 dereferenceable(16) %parametricForm_, i64 noundef %conv, i32 noundef %maxIterations, double noundef %tolerance, ptr noundef nonnull align 8 dereferenceable(24) %alpha_, ptr noundef nonnull align 8 dereferenceable(24) %a_, ptr noundef nonnull align 8 dereferenceable(24) %b_, ptr noundef nonnull align 8 dereferenceable(24) %swapCovariancePseudoRoots_)
  ret i32 0
}